; Function Attrs: mustprogress uwtable
define dso_local void @_ZNSt3__117__assoc_sub_state12__make_readyEv(ptr noundef nonnull align 8 dereferenceable(116) %0) local_unnamed_addr #1 align 2 {
_ZNSt3__111unique_lockINS_5mutexEED2B8ne210000Ev.exit:
  %1 = getelementptr inbounds nuw i8, ptr %0, i64 24
  tail call void @_ZNSt3__15mutex4lockEv(ptr noundef nonnull align 8 dereferenceable(40) %1)
  %2 = getelementptr inbounds nuw i8, ptr %0, i64 112
  %3 = load i32, ptr %2, align 8, !tbaa !16
  %4 = or i32 %3, 4
  store i32 %4, ptr %2, align 8, !tbaa !16
  %5 = getelementptr inbounds nuw i8, ptr %0, i64 64
  tail call void @_ZNSt3__118condition_variable10notify_allEv(ptr noundef nonnull align 8 dereferenceable(48) %5) #21
  tail call void @_ZNSt3__15mutex6unlockEv(ptr noundef nonnull align 8 dereferenceable(40) %1) #21
  ret void
}